(dp0
S'P2'
p1
(lp2
ccopy_reg
_reconstructor
p3
(cgeometry_msgs.msg._TransformStamped
TransformStamped
p4
c__builtin__
object
p5
Ntp6
Rp7
(lp8
g3
(cstd_msgs.msg._Header
Header
p9
g5
Ntp10
Rp11
(lp12
I0
ag3
(crospy.rostime
Time
p13
g5
Ntp14
Rp15
(lp16
I1695822340
aI919266939
abaS'panda_link0'
p17
abag1
ag3
(cgeometry_msgs.msg._Transform
Transform
p18
g5
Ntp19
Rp20
(lp21
g3
(cgeometry_msgs.msg._Vector3
Vector3
p22
g5
Ntp23
Rp24
(lp25
F0.5221783257513302
aF-0.3474098666346787
aF0.1660680114405102
abag3
(cgeometry_msgs.msg._Quaternion
Quaternion
p26
g5
Ntp27
Rp28
(lp29
F-0.9225328918160193
aF0.38533830398100866
aF0.0005855475641979016
aF-0.021145026286632264
abababag3
(csensor_msgs.msg._JointState
JointState
p30
g5
Ntp31
Rp32
(lp33
g3
(g9
g5
Ntp34
Rp35
(lp36
I5445
ag3
(cgenpy.rostime
Time
p37
g5
Ntp38
Rp39
(lp40
I1695822340
aI986023902
abaS''
p41
aba(lp42
S'panda_joint1'
p43
aS'panda_joint2'
p44
aS'panda_joint3'
p45
aS'panda_joint4'
p46
aS'panda_joint5'
p47
aS'panda_joint6'
p48
aS'panda_joint7'
p49
aS'panda_finger_joint1'
p50
aS'panda_finger_joint2'
p51
aa(F-0.5036886410462228
F0.6272142108500692
F-0.08594119602337218
F-1.9099865548305133
F0.01517082138856252
F2.5417044610999855
F0.20565748367836312
F0.013720393180847168
F0.013720393180847168
tp52
a(F0.00046825827294461265
F0.0016310859839725382
F0.0006702698907821659
F-0.0008269152126194169
F-3.7515298060258022e-06
F3.5242750199341585e-05
F3.242526395760711e-05
F0.0
F0.0
tp53
a(F0.08589434623718262
F-43.55588912963867
F-1.0030938386917114
F18.3247013092041
F0.528584361076355
F2.2054977416992188
F-0.03045734018087387
F0.0
F0.0
tp54
abasS'P3'
p55
(lp56
g3
(g4
g5
Ntp57
Rp58
(lp59
g3
(g9
g5
Ntp60
Rp61
(lp62
I0
ag3
(g13
g5
Ntp63
Rp64
(lp65
I1695822372
aI186031103
abaS'panda_link0'
p66
abag55
ag3
(g18
g5
Ntp67
Rp68
(lp69
g3
(g22
g5
Ntp70
Rp71
(lp72
F0.5932531855491067
aF-0.24361373238018963
aF0.165470900673498
abag3
(g26
g5
Ntp73
Rp74
(lp75
F-0.9225673249776628
aF0.38529761383324207
aF0.00342210076053388
aF-0.020089023977153207
abababag3
(g30
g5
Ntp76
Rp77
(lp78
g3
(g9
g5
Ntp79
Rp80
(lp81
I6384
ag3
(g37
g5
Ntp82
Rp83
(lp84
I1695822372
aI285958051
abag41
aba(lp85
S'panda_joint1'
p86
aS'panda_joint2'
p87
aS'panda_joint3'
p88
aS'panda_joint4'
p89
aS'panda_joint5'
p90
aS'panda_joint6'
p91
aS'panda_joint7'
p92
aS'panda_finger_joint1'
p93
aS'panda_finger_joint2'
p94
aa(F-0.3144954515047241
F0.6615324523112177
F-0.07896101866140089
F-1.8428347785287484
F0.013997933196524778
F2.495215168846978
F0.4030004642365707
F0.013720393180847168
F0.013720393180847168
tp95
a(F-0.00043806861906109
F3.346547736927419e-05
F-9.802598711556791e-05
F-0.00016305966680659164
F5.437290860202973e-05
F0.00042653043386159427
F0.0009225730548210658
F0.0
F0.0
tp96
a(F0.23665118217468262
F-43.90104293823242
F-0.8761407136917114
F18.8483829498291
F0.298786997795105
F2.3840255737304688
F0.002501644194126129
F0.0
F0.0
tp97
abasS'P1'
p98
(lp99
g3
(g4
g5
Ntp100
Rp101
(lp102
g3
(g9
g5
Ntp103
Rp104
(lp105
I0
ag3
(g13
g5
Ntp106
Rp107
(lp108
I1695822266
aI552664042
abaS'panda_link0'
p109
abag98
ag3
(g18
g5
Ntp110
Rp111
(lp112
g3
(g22
g5
Ntp113
Rp114
(lp115
F0.4551889188251199
aF-0.24413444578283228
aF0.1617376971064946
abag3
(g26
g5
Ntp116
Rp117
(lp118
F-0.9230234814047368
aF0.3841515140370727
aF0.010230710593689619
aF-0.01872430504056572
abababag3
(g30
g5
Ntp119
Rp120
(lp121
g3
(g9
g5
Ntp122
Rp123
(lp124
I3214
ag3
(g37
g5
Ntp125
Rp126
(lp127
I1695822266
aI619362115
abag41
aba(lp128
S'panda_joint1'
p129
aS'panda_joint2'
p130
aS'panda_joint3'
p131
aS'panda_joint4'
p132
aS'panda_joint5'
p133
aS'panda_joint6'
p134
aS'panda_joint7'
p135
aS'panda_finger_joint1'
p136
aS'panda_finger_joint2'
p137
aa(F-0.3719440295528947
F0.41387073171766176
F-0.11362277253364261
F-2.3213537257010475
F0.01599570670701638
F2.7154600742674466
F0.29770069929399645
F0.013720393180847168
F0.013720393180847168
tp138
a(F-0.0007249564333865362
F0.0003435987467756749
F0.00037772366335295384
F0.00047769710637442475
F8.724632516367745e-05
F-0.00015779938531832908
F-0.0008595082221842027
F0.0
F0.0
tp139
a(F0.11366534233093262
F-35.42295455932617
F-0.9277154207229614
F15.476189613342285
F0.395832896232605
F2.4371261596679688
F0.01531902700662613
F0.0
F0.0
tp140
abasS'Sredina'
p141
(lp142
g3
(g4
g5
Ntp143
Rp144
(lp145
g3
(g9
g5
Ntp146
Rp147
(lp148
I0
ag3
(g13
g5
Ntp149
Rp150
(lp151
I1695822447
aI419198036
abaS'panda_link0'
p152
abag141
ag3
(g18
g5
Ntp153
Rp154
(lp155
g3
(g22
g5
Ntp156
Rp157
(lp158
F0.49337590229558625
aF-0.0015501515344413831
aF0.46942240801271096
abag3
(g26
g5
Ntp159
Rp160
(lp161
F-0.9237104293949382
aF0.38278416103157825
aF0.010793481391664613
aF-0.010900892156954946
abababag3
(g30
g5
Ntp162
Rp163
(lp164
g3
(g9
g5
Ntp165
Rp166
(lp167
I8641
ag3
(g37
g5
Ntp168
Rp169
(lp170
I1695822447
aI519371032
abag41
aba(lp171
S'panda_joint1'
p172
aS'panda_joint2'
p173
aS'panda_joint3'
p174
aS'panda_joint4'
p175
aS'panda_joint5'
p176
aS'panda_joint6'
p177
aS'panda_joint7'
p178
aS'panda_finger_joint1'
p179
aS'panda_finger_joint2'
p180
aa(F0.06371504354148369
F-0.18254656636693875
F-0.06149046326154156
F-2.16930793240191
F-0.02477485672632853
F1.9586522633738876
F0.7988139909464451
F0.013720393180847168
F0.013720393180847168
tp181
a(F-0.0003548643399739499
F0.0003227267548472163
F-0.00206056494250419
F-9.536693827369914e-05
F0.0001653301495174285
F-0.0006358644804437679
F0.00039001843690014427
F0.0
F0.0
tp182
a(F0.03828692436218262
F-23.810710906982422
F0.1394842565059662
F22.58953285217285
F0.311604380607605
F2.1725387573242188
F-0.07074054330587387
F0.0
F0.0
tp183
abasS'P_nad'
p184
(lp185
g3
(g4
g5
Ntp186
Rp187
(lp188
g3
(g9
g5
Ntp189
Rp190
(lp191
I0
ag3
(g13
g5
Ntp192
Rp193
(lp194
I1695822301
aI619366884
abaS'panda_link0'
p195
abag184
ag3
(g18
g5
Ntp196
Rp197
(lp198
g3
(g22
g5
Ntp199
Rp200
(lp201
F0.5222429849014327
aF-0.29539917109383995
aF0.2946044763998102
abag3
(g26
g5
Ntp202
Rp203
(lp204
F-0.9226645088068717
aF0.3852810502107149
aF-0.0006242346114520608
aF-0.015758390395368815
abababag3
(g30
g5
Ntp205
Rp206
(lp207
g3
(g9
g5
Ntp208
Rp209
(lp210
I4265
ag3
(g37
g5
Ntp211
Rp212
(lp213
I1695822301
aI652709960
abag41
aba(lp214
S'panda_joint1'
p215
aS'panda_joint2'
p216
aS'panda_joint3'
p217
aS'panda_joint4'
p218
aS'panda_joint5'
p219
aS'panda_joint6'
p220
aS'panda_joint7'
p221
aS'panda_finger_joint1'
p222
aS'panda_finger_joint2'
p223
aa(F-0.3975848744542975
F0.32027972972789104
F-0.1210985070697048
F-2.0170419998227715
F0.00958223253162642
F2.340024416096253
F0.2719938096849168
F0.013720393180847168
F0.013720393180847168
tp224
a(F-0.00025214744219351996
F0.0006426828125571215
F0.0008995606487334096
F0.0010562070571014986
F-0.0007516904638239021
F0.0004629226611996093
F-0.00015402321672607707
F0.0
F0.0
tp225
a(F0.2644221782684326
F-37.61289596557617
F-0.8761407136917114
F20.69317054748535
F0.480976939201355
F2.1322555541992188
F0.08764568716287613
F0.0
F0.0
tp226
abasS'Home'
p227
(lp228
g3
(g4
g5
Ntp229
Rp230
(lp231
g3
(g9
g5
Ntp232
Rp233
(lp234
I0
ag3
(g13
g5
Ntp235
Rp236
(lp237
I1695822189
aI919357061
abaS'panda_link0'
p238
abag227
ag3
(g18
g5
Ntp239
Rp240
(lp241
g3
(g22
g5
Ntp242
Rp243
(lp244
F0.37924168656513146
aF-0.2271612834232526
aF0.5209657828896539
abag3
(g26
g5
Ntp245
Rp246
(lp247
F-0.922969506220651
aF0.3847438548889846
aF0.006960800964910231
aF-0.007141705811526199
abababag3
(g30
g5
Ntp248
Rp249
(lp250
g3
(g9
g5
Ntp251
Rp252
(lp253
I915
ag3
(g37
g5
Ntp254
Rp255
(lp256
I1695822189
aI986030101
abag41
aba(lp257
S'panda_joint1'
p258
aS'panda_joint2'
p259
aS'panda_joint3'
p260
aS'panda_joint4'
p261
aS'panda_joint5'
p262
aS'panda_joint6'
p263
aS'panda_joint7'
p264
aS'panda_finger_joint1'
p265
aS'panda_finger_joint2'
p266
aa(F-0.33995093747436333
F-0.3729607336005272
F-0.17039482521592525
F-2.2215313604923717
F-0.08038070946574911
F1.8402585039891248
F0.3133729295491345
F0.013721049763262272
F0.013721049763262272
tp267
a(F-0.0005785683245906765
F-0.0006890441419666057
F-2.06177036163568e-05
F0.00011813423925897565
F7.821911578452524e-05
F-3.022446278259786e-05
F0.0004309090867372776
F0.0
F0.0
tp268
a(F0.11366534233093262
F-17.149639129638672
F1.6153143644332886
F22.9664249420166
F0.432453989982605
F2.0397872924804688
F-0.08355792611837387
F0.0
F0.0
tp269
abasS'O3'
p270
(lp271
g3
(g4
g5
Ntp272
Rp273
(lp274
g3
(g9
g5
Ntp275
Rp276
(lp277
I0
ag3
(g13
g5
Ntp278
Rp279
(lp280
I1695822508
aI52702904
abaS'panda_link0'
p281
abag270
ag3
(g18
g5
Ntp282
Rp283
(lp284
g3
(g22
g5
Ntp285
Rp286
(lp287
F0.6150647904664343
aF0.3627999665378764
aF0.2708616136636006
abag3
(g26
g5
Ntp288
Rp289
(lp290
F0.9197256767937778
aF-0.3924927751542101
aF-0.004751117324437761
aF-0.00561496056474321
abababag3
(g30
g5
Ntp291
Rp292
(lp293
g3
(g9
g5
Ntp294
Rp295
(lp296
I10460
ag3
(g37
g5
Ntp297
Rp298
(lp299
I1695822508
aI152713060
abag41
aba(lp300
S'panda_joint1'
p301
aS'panda_joint2'
p302
aS'panda_joint3'
p303
aS'panda_joint4'
p304
aS'panda_joint5'
p305
aS'panda_joint6'
p306
aS'panda_joint7'
p307
aS'panda_finger_joint1'
p308
aS'panda_finger_joint2'
p309
aa(F0.5197195498040968
F0.6787158198236867
F0.015498581317906478
F-1.494618870846765
F0.005576270796358589
F2.176662916408645
F1.3352983258597575
F0.013720393180847168
F0.013720393180847168
tp310
a(F6.79855094370189e-05
F0.0006306712468452402
F-0.0007882277307859678
F-7.107751979087233e-05
F-5.7237223891621085e-05
F0.00017916785560701098
F-0.0006516301728182848
F0.0
F0.0
tp311
a(F-0.18784832954406738
F-47.30894088745117
F0.4687689244747162
F21.86748695373535
F0.420552134513855
F1.8411177396774292
F-0.14306721091270447
F0.0
F0.0
tp312
abasS'O2'
p313
(lp314
g3
(g4
g5
Ntp315
Rp316
(lp317
g3
(g9
g5
Ntp318
Rp319
(lp320
I0
ag3
(g13
g5
Ntp321
Rp322
(lp323
I1695822496
aI652714968
abaS'panda_link0'
p324
abag313
ag3
(g18
g5
Ntp325
Rp326
(lp327
g3
(g22
g5
Ntp328
Rp329
(lp330
F0.48315287436756715
aF0.3789101486163797
aF0.2686547475643248
abag3
(g26
g5
Ntp331
Rp332
(lp333
F-0.9212603606362142
aF0.38884535395875
aF0.008576203351575273
aF-0.0022555179447753377
abababag3
(g30
g5
Ntp334
Rp335
(lp336
g3
(g9
g5
Ntp337
Rp338
(lp339
I10117
ag3
(g37
g5
Ntp340
Rp341
(lp342
I1695822496
aI719392061
abag41
aba(lp343
S'panda_joint1'
p344
aS'panda_joint2'
p345
aS'panda_joint3'
p346
aS'panda_joint4'
p347
aS'panda_joint5'
p348
aS'panda_joint6'
p349
aS'panda_joint7'
p350
aS'panda_finger_joint1'
p351
aS'panda_finger_joint2'
p352
aa(F0.6431193765924687
F0.3994067471069031
F0.022665301092099726
F-1.9634120121002197
F0.005600722614675761
F2.3504349196269203
F1.4588813561167981
F0.013720721937716007
F0.013720721937716007
tp353
a(F-0.00023809762937097495
F0.0010215371009858099
F-0.0008639587508723045
F-0.0002778970199465669
F-3.887377247728646e-05
F-0.00038082383777669597
F-0.0003286953119613557
F0.0
F0.0
tp354
a(F-0.06089520454406738
F-38.97764205932617
F0.4449652135372162
F20.3956241607666
F0.329914927482605
F2.1459884643554688
F-0.20257648825645447
F0.0
F0.0
tp355
abasS'O1'
p356
(lp357
g3
(g4
g5
Ntp358
Rp359
(lp360
g3
(g9
g5
Ntp361
Rp362
(lp363
I0
ag3
(g13
g5
Ntp364
Rp365
(lp366
I1695822479
aI785981894
abaS'panda_link0'
p367
abag356
ag3
(g18
g5
Ntp368
Rp369
(lp370
g3
(g22
g5
Ntp371
Rp372
(lp373
F0.3512747594223054
aF0.3859267791332336
aF0.2788603325240571
abag3
(g26
g5
Ntp374
Rp375
(lp376
F-0.9228139184186187
aF0.3851218067828206
aF0.0072027710063099
aF-0.006617099292041948
abababag3
(g30
g5
Ntp377
Rp378
(lp379
g3
(g9
g5
Ntp380
Rp381
(lp382
I9612
ag3
(g37
g5
Ntp383
Rp384
(lp385
I1695822479
aI885998010
abag41
aba(lp386
S'panda_joint1'
p387
aS'panda_joint2'
p388
aS'panda_joint3'
p389
aS'panda_joint4'
p390
aS'panda_joint5'
p391
aS'panda_joint6'
p392
aS'panda_joint7'
p393
aS'panda_finger_joint1'
p394
aS'panda_finger_joint2'
p395
aa(F0.8028671169551876
F0.1514232216383281
F0.02935007655969206
F-2.306528413638734
F0.007254403388872481
F2.4405638150489084
F1.6170549860824368
F0.013720721937716007
F0.013720721937716007
tp396
a(F0.0004507175910818583
F-0.0007369933813645489
F-7.284101680908122e-05
F-0.00032392695423878493
F-0.0003079944679923403
F0.0001610016551307134
F0.0006267336428163305
F0.0
F0.0
tp397
a(F0.16127276420593262
F-30.650310516357422
F0.2426336705684662
F19.12212562561035
F0.546894907951355
F2.1588058471679688
F0.08123699575662613
F0.0
F0.0
tp398
abas.