(dp0
S'P2'
p1
(lp2
ccopy_reg
_reconstructor
p3
(cgeometry_msgs.msg._TransformStamped
TransformStamped
p4
c__builtin__
object
p5
Ntp6
Rp7
(lp8
g3
(cstd_msgs.msg._Header
Header
p9
g5
Ntp10
Rp11
(lp12
I0
ag3
(crospy.rostime
Time
p13
g5
Ntp14
Rp15
(lp16
I1695905930
aI601037979
abaS'panda_link0'
p17
abag1
ag3
(cgeometry_msgs.msg._Transform
Transform
p18
g5
Ntp19
Rp20
(lp21
g3
(cgeometry_msgs.msg._Vector3
Vector3
p22
g5
Ntp23
Rp24
(lp25
F0.44627002991425013
aF-0.3114528903088479
aF0.14737398108968702
abag3
(cgeometry_msgs.msg._Quaternion
Quaternion
p26
g5
Ntp27
Rp28
(lp29
F0.928313564888318
aF0.3716744322255534
aF-0.0034310982675113547
aF-0.008959310176244881
abababag3
(csensor_msgs.msg._JointState
JointState
p30
g5
Ntp31
Rp32
(lp33
g3
(g9
g5
Ntp34
Rp35
(lp36
I3321
ag3
(cgenpy.rostime
Time
p37
g5
Ntp38
Rp39
(lp40
I1695905930
aI667675971
abaS''
p41
aba(lp42
S'panda_joint1'
p43
aS'panda_joint2'
p44
aS'panda_joint3'
p45
aS'panda_joint4'
p46
aS'panda_joint5'
p47
aS'panda_joint6'
p48
aS'panda_joint7'
p49
aS'panda_finger_joint1'
p50
aS'panda_finger_joint2'
p51
aa(F1.2208906344028942
F-1.6885185073021534
F-1.6926817528406777
F-2.099487286534226
F-1.7177060710599024
F1.6056784193250868
F-0.5726518334986435
F0.0033306132536381483
F0.0033306132536381483
tp52
a(F0.0001987993380325712
F-1.2724112190387455e-05
F0.0008339315354138594
F0.0008462766347370189
F-0.0002342735129958973
F-0.000290355109432821
F-7.999444202974887e-05
F0.0
F0.0
tp53
a(F0.3874080181121826
F25.240802764892578
F28.247699737548828
F-3.2176578044891357
F0.752888560295105
F2.2585983276367188
F0.02172771841287613
F0.0
F0.0
tp54
abasS'P3'
p55
(lp56
g3
(g4
g5
Ntp57
Rp58
(lp59
g3
(g9
g5
Ntp60
Rp61
(lp62
I0
ag3
(g13
g5
Ntp63
Rp64
(lp65
I1695905943
aI601025105
abaS'panda_link0'
p66
abag55
ag3
(g18
g5
Ntp67
Rp68
(lp69
g3
(g22
g5
Ntp70
Rp71
(lp72
F0.4472188691955534
aF-0.24146246738351926
aF0.1502693300795577
abag3
(g26
g5
Ntp73
Rp74
(lp75
F0.9285720112209516
aF0.3710002783399159
aF-0.0028683523801348487
aF-0.010226729849046164
abababag3
(g30
g5
Ntp76
Rp77
(lp78
g3
(g9
g5
Ntp79
Rp80
(lp81
I3711
ag3
(g37
g5
Ntp82
Rp83
(lp84
I1695905943
aI669831037
abag41
aba(lp85
S'panda_joint1'
p86
aS'panda_joint2'
p87
aS'panda_joint3'
p88
aS'panda_joint4'
p89
aS'panda_joint5'
p90
aS'panda_joint6'
p91
aS'panda_joint7'
p92
aS'panda_finger_joint1'
p93
aS'panda_finger_joint2'
p94
aa(F1.2431982385568452
F-1.689424022143756
F-1.7038634494680336
F-2.2241435443309316
F-1.7256408019463216
F1.5968422246329674
F-0.42428567983555804
F0.003330941777676344
F0.003330941777676344
tp95
a(F0.0004887420933433241
F-0.0010879785121043499
F-0.0004255280661550388
F-0.0009220386332087518
F-0.0001703953254625647
F-0.0007611926211916801
F0.00022806628700258882
F0.0
F0.0
tp96
a(F0.23665118217468262
F22.582721710205078
F27.513751983642578
F-3.5667788982391357
F0.462666392326355
F2.4435348510742188
F-0.03778155893087387
F0.0
F0.0
tp97
abasS'P1'
p98
(lp99
g3
(g4
g5
Ntp100
Rp101
(lp102
g3
(g9
g5
Ntp103
Rp104
(lp105
I0
ag3
(g13
g5
Ntp106
Rp107
(lp108
I1695905912
aI667680979
abaS'panda_link0'
p109
abag98
ag3
(g18
g5
Ntp110
Rp111
(lp112
g3
(g22
g5
Ntp113
Rp114
(lp115
F0.4438695659480988
aF-0.3798900439962089
aF0.14790342451065092
abag3
(g26
g5
Ntp116
Rp117
(lp118
F0.9280372597998429
aF0.3724466038895895
aF-0.0020657160505116955
aF-0.005109255474974011
abababag3
(g30
g5
Ntp119
Rp120
(lp121
g3
(g9
g5
Ntp122
Rp123
(lp124
I2783
ag3
(g37
g5
Ntp125
Rp126
(lp127
I1695905912
aI734405040
abag41
aba(lp128
S'panda_joint1'
p129
aS'panda_joint2'
p130
aS'panda_joint3'
p131
aS'panda_joint4'
p132
aS'panda_joint5'
p133
aS'panda_joint6'
p134
aS'panda_joint7'
p135
aS'panda_finger_joint1'
p136
aS'panda_finger_joint2'
p137
aa(F1.2226776287679397
F-1.688243680407
F-1.6749579041464286
F-1.9574824962754511
F-1.7106865869448429
F1.6150145173602632
F-0.7151826602253396
F0.003330941777676344
F0.003330941777676344
tp138
a(F0.0006583542224993143
F0.0007790702261049392
F-4.307171098005259e-05
F0.0004518029238717776
F-0.00031547645914138336
F-6.047813645761477e-06
F-0.0005480757355345166
F0.0
F0.0
tp139
a(F0.2882258892059326
F28.275775909423828
F29.342670440673828
F-2.9399478435516357
F0.480976939201355
F2.3638839721679688
F0.15447917580604553
F0.0
F0.0
tp140
abasS'P6'
p141
(lp142
g3
(g4
g5
Ntp143
Rp144
(lp145
g3
(g9
g5
Ntp146
Rp147
(lp148
I0
ag3
(g13
g5
Ntp149
Rp150
(lp151
I1695905877
aI801157951
abaS'panda_link0'
p152
abag141
ag3
(g18
g5
Ntp153
Rp154
(lp155
g3
(g22
g5
Ntp156
Rp157
(lp158
F0.5490840379340941
aF-0.23861522137007993
aF0.1498191951247983
abag3
(g26
g5
Ntp159
Rp160
(lp161
F0.9284413449259912
aF0.3714705024811285
aF0.0024399212758764136
aF-0.0006177399146571333
abababag3
(g30
g5
Ntp162
Rp163
(lp164
g3
(g9
g5
Ntp165
Rp166
(lp167
I1737
ag3
(g37
g5
Ntp168
Rp169
(lp170
I1695905877
aI867738962
abag41
aba(lp171
S'panda_joint1'
p172
aS'panda_joint2'
p173
aS'panda_joint3'
p174
aS'panda_joint4'
p175
aS'panda_joint5'
p176
aS'panda_joint6'
p177
aS'panda_joint7'
p178
aS'panda_finger_joint1'
p179
aS'panda_finger_joint2'
p180
aa(F1.550990350577609
F-1.7152043944593216
F-1.6528359115353293
F-1.9093791064881442
F-1.7327740172147745
F1.6042993315590752
F-0.4341717022698786
F0.0033302849624305964
F0.0033302849624305964
tp181
a(F-0.0003153860141388054
F0.00013911056936178237
F0.0007174049199033725
F-4.0195058145241474e-05
F0.0001859406386465723
F-0.00018209456373936635
F-0.0007934908286407155
F0.0
F0.0
tp182
a(F0.16127276420593262
F29.271564483642578
F29.239521026611328
F-3.2176578044891357
F0.420552134513855
F2.4169845581054688
F0.10778728872537613
F0.0
F0.0
tp183
abasS'P4'
p184
(lp185
g3
(g4
g5
Ntp186
Rp187
(lp188
g3
(g9
g5
Ntp189
Rp190
(lp191
I0
ag3
(g13
g5
Ntp192
Rp193
(lp194
I1695905837
aI601016998
abaS'panda_link0'
p195
abag184
ag3
(g18
g5
Ntp196
Rp197
(lp198
g3
(g22
g5
Ntp199
Rp200
(lp201
F0.5436868679442568
aF-0.3790570147631428
aF0.14811942618622392
abag3
(g26
g5
Ntp202
Rp203
(lp204
F0.9275698484016315
aF0.3735318781786165
aF0.006294053358323936
aF0.006963994030193128
abababag3
(g30
g5
Ntp205
Rp206
(lp207
g3
(g9
g5
Ntp208
Rp209
(lp210
I530
ag3
(g37
g5
Ntp211
Rp212
(lp213
I1695905837
aI634372949
abag41
aba(lp214
S'panda_joint1'
p215
aS'panda_joint2'
p216
aS'panda_joint3'
p217
aS'panda_joint4'
p218
aS'panda_joint5'
p219
aS'panda_joint6'
p220
aS'panda_joint7'
p221
aS'panda_finger_joint1'
p222
aS'panda_finger_joint2'
p223
aa(F1.524971433823419
F-1.71267568068041
F-1.6292649072512713
F-1.6492180284400932
F-1.7258784177923154
F1.633941827668084
F-0.7250041281406593
F0.003330941777676344
F0.003330941777676344
tp224
a(F0.0008410698309356917
F0.00015057198584707344
F0.0011506667535961974
F-0.0004416969883024859
F-2.489819012075989e-05
F0.0002174206373376338
F-0.0002677930911288394
F0.0
F0.0
tp225
a(F0.4627864360809326
F35.28596878051758
F29.394245147705078
F-2.6900088787078857
F0.558796763420105
F2.4041671752929688
F-0.01763995736837387
F0.0
F0.0
tp226
abasS'P5'
p227
(lp228
g3
(g4
g5
Ntp229
Rp230
(lp231
g3
(g9
g5
Ntp232
Rp233
(lp234
I0
ag3
(g13
g5
Ntp235
Rp236
(lp237
I1695905858
aI367713928
abaS'panda_link0'
p238
abag227
ag3
(g18
g5
Ntp239
Rp240
(lp241
g3
(g22
g5
Ntp242
Rp243
(lp244
F0.5468051135889606
aF-0.31085151971295516
aF0.14928487073858793
abag3
(g26
g5
Ntp245
Rp246
(lp247
F0.9280919587040741
aF0.3722743651936151
aF0.006187207580008169
aF0.0043395473137107675
abababag3
(g30
g5
Ntp248
Rp249
(lp250
g3
(g9
g5
Ntp251
Rp252
(lp253
I1155
ag3
(g37
g5
Ntp254
Rp255
(lp256
I1695905858
aI468192100
abag41
aba(lp257
S'panda_joint1'
p258
aS'panda_joint2'
p259
aS'panda_joint3'
p260
aS'panda_joint4'
p261
aS'panda_joint5'
p262
aS'panda_joint6'
p263
aS'panda_joint7'
p264
aS'panda_finger_joint1'
p265
aS'panda_finger_joint2'
p266
aa(F1.5221867493244639
F-1.713115638013471
F-1.6425536026909824
F-1.793268363601283
F-1.7315899113416666
F1.6225820608655142
F-0.5807513592681951
F0.0033306132536381483
F0.0033306132536381483
tp267
a(F0.0003747878160516081
F0.00099056392447372
F0.0007149496659567734
F-0.0002540694390520653
F-0.00011435638456227581
F-1.6743274827460508e-05
F0.004324818293003751
F0.0
F0.0
tp268
a(F0.3874080181121826
F32.02882766723633
F29.568805694580078
F-2.9161441326141357
F0.420552134513855
F2.3904342651367188
F0.04827801138162613
F0.0
F0.0
tp269
abasS'Home'
p270
(lp271
g3
(g4
g5
Ntp272
Rp273
(lp274
g3
(g9
g5
Ntp275
Rp276
(lp277
I0
ag3
(g13
g5
Ntp278
Rp279
(lp280
I1695905959
aI601036072
abaS'panda_link0'
p281
abag270
ag3
(g18
g5
Ntp282
Rp283
(lp284
g3
(g22
g5
Ntp285
Rp286
(lp287
F0.3917558388001799
aF-0.09029023262094685
aF0.3830275900750123
abag3
(g26
g5
Ntp288
Rp289
(lp290
F0.9281305889231906
aF0.3720757450989397
aF0.0102299497742505
aF-0.005347704346406334
abababag3
(g30
g5
Ntp291
Rp292
(lp293
g3
(g9
g5
Ntp294
Rp295
(lp296
I4191
ag3
(g37
g5
Ntp297
Rp298
(lp299
I1695905959
aI667702913
abag41
aba(lp300
S'panda_joint1'
p301
aS'panda_joint2'
p302
aS'panda_joint3'
p303
aS'panda_joint4'
p304
aS'panda_joint5'
p305
aS'panda_joint6'
p306
aS'panda_joint7'
p307
aS'panda_finger_joint1'
p308
aS'panda_finger_joint2'
p309
aa(F1.3498233385958731
F-1.6422310135293936
F-1.141065908063922
F-2.4780695848743814
F-1.2643941048383713
F1.276168463283115
F-0.04193052776764012
F0.0033306132536381483
F0.0033306132536381483
tp310
a(F4.071419124387588e-06
F-0.00013773819822561473
F-0.0006295767892561261
F-8.880290876387307e-05
F-0.0005955230270943672
F8.447343040007444e-05
F0.0004670008121232735
F0.0
F0.0
tp311
a(F0.3636043071746826
F19.476337432861328
F22.427692413330078
F5.046197414398193
F1.085224986076355
F2.0535202026367188
F0.10137859731912613
F0.0
F0.0
tp312
abasS'O1'
p313
(lp314
g3
(g4
g5
Ntp315
Rp316
(lp317
g3
(g9
g5
Ntp318
Rp319
(lp320
I0
ag3
(g13
g5
Ntp321
Rp322
(lp323
I1695906017
aI467856884
abaS'panda_link0'
p324
abag313
ag3
(g18
g5
Ntp325
Rp326
(lp327
g3
(g22
g5
Ntp328
Rp329
(lp330
F0.30057524890100784
aF0.27415616897800466
aF0.2416330613216688
abag3
(g26
g5
Ntp331
Rp332
(lp333
F-0.9282234712198338
aF-0.3718746437959043
aF-0.008497689072649497
aF0.006182722595789551
abababag3
(g30
g5
Ntp334
Rp335
(lp336
g3
(g9
g5
Ntp337
Rp338
(lp339
I5928
ag3
(g37
g5
Ntp340
Rp341
(lp342
I1695906017
aI570457935
abag41
aba(lp343
S'panda_joint1'
p344
aS'panda_joint2'
p345
aS'panda_joint3'
p346
aS'panda_joint4'
p347
aS'panda_joint5'
p348
aS'panda_joint6'
p349
aS'panda_joint7'
p350
aS'panda_finger_joint1'
p351
aS'panda_finger_joint2'
p352
aa(F2.2152099397433473
F-1.7017904422564023
F-1.518085827966279
F-2.5822393073120185
F-1.6087376256386436
F1.4487830048208128
F0.8869084815754923
F0.0033306132536381483
F0.0033306132536381483
tp353
a(F-0.0005980169941090065
F-0.00014533733617505613
F0.0009109881255638867
F0.0009577901859692451
F0.0002719024629779665
F-0.00033019756262549313
F0.00041290539668669747
F0.0
F0.0
tp354
a(F-0.013287782669067383
F16.838092803955078
F23.038654327392578
F-1.0951601266860962
F0.855427622795105
F2.0663375854492188
F0.06201092153787613
F0.0
F0.0
tp355
abas.