(dp0
S'P2'
p1
(lp2
ccopy_reg
_reconstructor
p3
(cgeometry_msgs.msg._TransformStamped
TransformStamped
p4
c__builtin__
object
p5
Ntp6
Rp7
(lp8
g3
(cstd_msgs.msg._Header
Header
p9
g5
Ntp10
Rp11
(lp12
I0
ag3
(crospy.rostime
Time
p13
g5
Ntp14
Rp15
(lp16
I1695978320
aI369999886
abaS'panda_link0'
p17
abag1
ag3
(cgeometry_msgs.msg._Transform
Transform
p18
g5
Ntp19
Rp20
(lp21
g3
(cgeometry_msgs.msg._Vector3
Vector3
p22
g5
Ntp23
Rp24
(lp25
F0.5506581862884407
aF-0.24209381918397188
aF0.14656097761397346
abag3
(cgeometry_msgs.msg._Quaternion
Quaternion
p26
g5
Ntp27
Rp28
(lp29
F0.9285843602245117
aF0.37070443001991893
aF0.017065375650586707
aF-0.00425258320850946
abababag3
(csensor_msgs.msg._JointState
JointState
p30
g5
Ntp31
Rp32
(lp33
g3
(g9
g5
Ntp34
Rp35
(lp36
I1743
ag3
(cgenpy.rostime
Time
p37
g5
Ntp38
Rp39
(lp40
I1695978320
aI436784029
abaS''
p41
aba(lp42
S'panda_joint1'
p43
aS'panda_joint2'
p44
aS'panda_joint3'
p45
aS'panda_joint4'
p46
aS'panda_joint5'
p47
aS'panda_joint6'
p48
aS'panda_joint7'
p49
aS'panda_finger_joint1'
p50
aS'panda_finger_joint2'
p51
aa(F1.549935981069181
F-1.6848226663522552
F-1.681270341120268
F-1.9003336979213514
F-1.7041286416451134
F1.6712261918971298
F-0.44072917680366974
F0.008647971786558628
F0.008647971786558628
tp52
a(F0.000589216844750979
F-0.001104569790782389
F0.0008136079738720506
F0.001264582897059574
F0.0001504958474524287
F0.0004183277942894034
F0.0005132422430940734
F0.0
F0.0
tp53
a(F0.16127276420593262
F28.922443389892578
F27.255878448486328
F-2.6900088787078857
F0.825215220451355
F1.8814009428024292
F0.06201092153787613
F0.0
F0.0
tp54
abasS'P3'
p55
(lp56
g3
(g4
g5
Ntp57
Rp58
(lp59
g3
(g9
g5
Ntp60
Rp61
(lp62
I0
ag3
(g13
g5
Ntp63
Rp64
(lp65
I1695978357
aI903492928
abaS'panda_link0'
p66
abag55
ag3
(g18
g5
Ntp67
Rp68
(lp69
g3
(g22
g5
Ntp70
Rp71
(lp72
F0.44470616853843836
aF-0.313349479101553
aF0.1458857078029519
abag3
(g26
g5
Ntp73
Rp74
(lp75
F0.9279663390561139
aF0.3723523365115467
aF0.014092828710427724
aF-0.00579683121399753
abababag3
(g30
g5
Ntp76
Rp77
(lp78
g3
(g9
g5
Ntp79
Rp80
(lp81
I2869
ag3
(g37
g5
Ntp82
Rp83
(lp84
I1695978357
aI970129013
abag41
aba(lp85
S'panda_joint1'
p86
aS'panda_joint2'
p87
aS'panda_joint3'
p88
aS'panda_joint4'
p89
aS'panda_joint5'
p90
aS'panda_joint6'
p91
aS'panda_joint7'
p92
aS'panda_finger_joint1'
p93
aS'panda_finger_joint2'
p94
aa(F1.2043549659461306
F-1.6966238442312493
F-1.7006934872008206
F-2.1067764117424947
F-1.7283941577355906
F1.6425352971858662
F-0.5823929888043139
F0.008648299612104893
F0.008648299612104893
tp95
a(F0.0004481574105265936
F-0.0007121489328313531
F0.0007082690987621959
F-0.0003944562099909385
F-0.00030587545676696246
F2.282713178865513e-06
F-0.0006744649759027687
F0.0
F0.0
tp96
a(F0.21284747123718262
F24.598102569580078
F26.926593780517578
F-3.3168399333953857
F0.607319712638855
F2.3904342651367188
F0.15447917580604553
F0.0
F0.0
tp97
abasS'P1'
p98
(lp99
g3
(g4
g5
Ntp100
Rp101
(lp102
g3
(g9
g5
Ntp103
Rp104
(lp105
I0
ag3
(g13
g5
Ntp106
Rp107
(lp108
I1695978285
aI370125055
abaS'panda_link0'
p109
abag98
ag3
(g18
g5
Ntp110
Rp111
(lp112
g3
(g22
g5
Ntp113
Rp114
(lp115
F0.44751120667571587
aF-0.2422991296188089
aF0.14592627187903365
abag3
(g26
g5
Ntp116
Rp117
(lp118
F0.9290177142398478
aF0.3698403947632418
aF0.010209128049708955
aF-0.006320026455898809
abababag3
(g30
g5
Ntp119
Rp120
(lp121
g3
(g9
g5
Ntp122
Rp123
(lp124
I694
ag3
(g37
g5
Ntp125
Rp126
(lp127
I1695978285
aI470119953
abag41
aba(lp128
S'panda_joint1'
p129
aS'panda_joint2'
p130
aS'panda_joint3'
p131
aS'panda_joint4'
p132
aS'panda_joint5'
p133
aS'panda_joint6'
p134
aS'panda_joint7'
p135
aS'panda_finger_joint1'
p136
aS'panda_finger_joint2'
p137
aa(F1.2376279460840058
F-1.6791910823186236
F-1.7229482892746657
F-2.2257161992892884
F-1.7360113662891645
F1.6442660952903916
F-0.42376830836551055
F0.008648628368973732
F0.008648628368973732
tp138
a(F0.0009024015015572349
F-0.000905958440869417
F-2.6748920666426687e-05
F-9.524762992585706e-05
F-0.0003072151519809745
F-0.0002698238331298787
F-0.00036271427842423303
F0.0
F0.0
tp139
a(F0.23665118217468262
F22.356586456298828
F25.732440948486328
F-3.4675967693328857
F0.825215220451355
F2.1853561401367188
F0.05468670278787613
F0.0
F0.0
tp140
abasS'P6'
p141
(lp142
g3
(g4
g5
Ntp143
Rp144
(lp145
g3
(g9
g5
Ntp146
Rp147
(lp148
I0
ag3
(g13
g5
Ntp149
Rp150
(lp151
I1695978425
aI670175076
abaS'panda_link0'
p152
abag141
ag3
(g18
g5
Ntp153
Rp154
(lp155
g3
(g22
g5
Ntp156
Rp157
(lp158
F0.550269671743347
aF-0.38469831452850417
aF0.14729806620686206
abag3
(g26
g5
Ntp159
Rp160
(lp161
F0.9281961459462404
aF0.3718694195187657
aF0.011470323923793983
aF-0.00578628951959281
abababag3
(g30
g5
Ntp162
Rp163
(lp164
g3
(g9
g5
Ntp165
Rp166
(lp167
I4903
ag3
(g37
g5
Ntp168
Rp169
(lp170
I1695978425
aI770545005
abag41
aba(lp171
S'panda_joint1'
p172
aS'panda_joint2'
p173
aS'panda_joint3'
p174
aS'panda_joint4'
p175
aS'panda_joint5'
p176
aS'panda_joint6'
p177
aS'panda_joint7'
p178
aS'panda_finger_joint1'
p179
aS'panda_finger_joint2'
p180
aa(F1.5502247327336094
F-1.7219120163665071
F-1.6184628635075033
F-1.6021403050840948
F-1.7044665761453353
F1.630490546577557
F-0.7454558663377844
F0.008648299612104893
F0.008648299612104893
tp181
a(F-5.42589827678353e-05
F-0.00022043937191813318
F-0.0005866397965500089
F-0.0005590631079997453
F-0.0003996592292289142
F-0.00039840497227876226
F0.00036826382485870014
F0.0
F0.0
tp182
a(F0.4151790142059326
F35.23836135864258
F28.069171905517578
F-2.9677188396453857
F0.976277232170105
F2.1725387573242188
F-0.06433185189962387
F0.0
F0.0
tp183
abasS'P4'
p184
(lp185
g3
(g4
g5
Ntp186
Rp187
(lp188
g3
(g9
g5
Ntp189
Rp190
(lp191
I0
ag3
(g13
g5
Ntp192
Rp193
(lp194
I1695978383
aI503453970
abaS'panda_link0'
p195
abag184
ag3
(g18
g5
Ntp196
Rp197
(lp198
g3
(g22
g5
Ntp199
Rp200
(lp201
F0.5506283307856527
aF-0.31303452859298375
aF0.14717285738636213
abag3
(g26
g5
Ntp202
Rp203
(lp204
F0.9285023188972009
aF0.3711179270120073
aF0.012179234296352696
aF-0.00256793784695321
abababag3
(g30
g5
Ntp205
Rp206
(lp207
g3
(g9
g5
Ntp208
Rp209
(lp210
I3638
ag3
(g37
g5
Ntp211
Rp212
(lp213
I1695978383
aI603466033
abag41
aba(lp214
S'panda_joint1'
p215
aS'panda_joint2'
p216
aS'panda_joint3'
p217
aS'panda_joint4'
p218
aS'panda_joint5'
p219
aS'panda_joint6'
p220
aS'panda_joint7'
p221
aS'panda_finger_joint1'
p222
aS'panda_finger_joint2'
p223
aa(F1.5336486048112834
F-1.7039634709120586
F-1.652303940538791
F-1.7717451723834923
F-1.7076742151975628
F1.6461714530518754
F-0.5880282195157153
F0.008648299612104893
F0.008648299612104893
tp224
a(F0.00015761767629360944
F0.000826457044544384
F0.000188363236610198
F-0.00021770523887047343
F-8.749321471983939e-05
F-1.0966598618953327e-06
F-5.204102983912723e-05
F0.0
F0.0
tp225
a(F0.3636043071746826
F31.731281280517578
F28.299274444580078
F-2.8169620037078857
F0.722676157951355
F2.1661300659179688
F0.00891033560037613
F0.0
F0.0
tp226
abasS'P5'
p227
(lp228
g3
(g4
g5
Ntp229
Rp230
(lp231
g3
(g9
g5
Ntp232
Rp233
(lp234
I0
ag3
(g13
g5
Ntp235
Rp236
(lp237
I1695978403
aI503473043
abaS'panda_link0'
p238
abag227
ag3
(g18
g5
Ntp239
Rp240
(lp241
g3
(g22
g5
Ntp242
Rp243
(lp244
F0.4451465363172529
aF-0.38394969996298833
aF0.14606407807975966
abag3
(g26
g5
Ntp245
Rp246
(lp247
F0.9280442505832941
aF0.3722146408790074
aF0.011892991503136066
aF-0.006977594693740172
abababag3
(g30
g5
Ntp248
Rp249
(lp250
g3
(g9
g5
Ntp251
Rp252
(lp253
I4237
ag3
(g37
g5
Ntp254
Rp255
(lp256
I1695978403
aI570106029
abag41
aba(lp257
S'panda_joint1'
p258
aS'panda_joint2'
p259
aS'panda_joint3'
p260
aS'panda_joint4'
p261
aS'panda_joint5'
p262
aS'panda_joint6'
p263
aS'panda_joint7'
p264
aS'panda_finger_joint1'
p265
aS'panda_finger_joint2'
p266
aa(F1.2194405026766055
F-1.7091658985405638
F-1.6714195915690635
F-1.9460470177990017
F-1.715244659532681
F1.6304447664770045
F-0.7295810236746046
F0.008648299612104893
F0.008648299612104893
tp267
a(F0.0004824862174073254
F-0.001153064015198278
F0.0006387063742406551
F0.0003672023980340384
F-8.415219948345501e-05
F-9.029731362987791e-05
F-0.00139058881567249
F0.0
F0.0
tp268
a(F0.2882258892059326
F27.978229522705078
F27.739887237548828
F-3.0907046794891357
F0.819722056388855
F2.3116989135742188
F0.13433757424354553
F0.0
F0.0
tp269
abasS'O6'
p270
(lp271
g3
(g4
g5
Ntp272
Rp273
(lp274
g3
(g9
g5
Ntp275
Rp276
(lp277
I0
ag3
(g13
g5
Ntp278
Rp279
(lp280
I1695978530
aI736799002
abaS'panda_link0'
p281
abag270
ag3
(g18
g5
Ntp282
Rp283
(lp284
g3
(g22
g5
Ntp285
Rp286
(lp287
F0.6035771778605715
aF0.3693953481212475
aF0.24718600587245193
abag3
(g26
g5
Ntp288
Rp289
(lp290
F0.9296810595505184
aF0.36804351944213565
aF-0.0018197808029839788
aF-0.01528998716484419
abababag3
(g30
g5
Ntp291
Rp292
(lp293
g3
(g9
g5
Ntp294
Rp295
(lp296
I8055
ag3
(g37
g5
Ntp297
Rp298
(lp299
I1695978530
aI836714029
abag41
aba(lp300
S'panda_joint1'
p301
aS'panda_joint2'
p302
aS'panda_joint3'
p303
aS'panda_joint4'
p304
aS'panda_joint5'
p305
aS'panda_joint6'
p306
aS'panda_joint7'
p307
aS'panda_finger_joint1'
p308
aS'panda_finger_joint2'
p309
aa(F2.8190360906333254
F-1.592335668363069
F-1.506387621896464
F-1.4447355221152947
F-1.5753208950757975
F1.5276659140541067
F0.36798038621337026
F0.008648628368973732
F0.008648628368973732
tp310
a(F0.00034238372475311297
F-0.00022025610069142492
F-0.0012646744199809304
F-0.0005247944430194731
F4.1924184983188524e-05
F-0.00018732758587511667
F0.0007851173216276844
F0.0
F0.0
tp311
a(F0.21284747123718262
F40.53468704223633
F28.680133819580078
F-0.4961000680923462
F0.511189341545105
F2.3446578979492188
F-0.06433185189962387
F0.0
F0.0
tp312
abasS'Home'
p313
(lp314
g3
(g4
g5
Ntp315
Rp316
(lp317
g3
(g9
g5
Ntp318
Rp319
(lp320
I0
ag3
(g13
g5
Ntp321
Rp322
(lp323
I1695978455
aI3386974
abaS'panda_link0'
p324
abag313
ag3
(g18
g5
Ntp325
Rp326
(lp327
g3
(g22
g5
Ntp328
Rp329
(lp330
F0.4103252905796283
aF-0.19242792108766
aF0.4032049556699591
abag3
(g26
g5
Ntp331
Rp332
(lp333
F-0.9282814673894902
aF-0.371545054528436
aF-0.015450487279268076
aF0.0030120092146863906
abababag3
(g30
g5
Ntp334
Rp335
(lp336
g3
(g9
g5
Ntp337
Rp338
(lp339
I5783
ag3
(g37
g5
Ntp340
Rp341
(lp342
I1695978455
aI103470087
abag41
aba(lp343
S'panda_joint1'
p344
aS'panda_joint2'
p345
aS'panda_joint3'
p346
aS'panda_joint4'
p347
aS'panda_joint5'
p348
aS'panda_joint6'
p349
aS'panda_joint7'
p350
aS'panda_finger_joint1'
p351
aS'panda_finger_joint2'
p352
aa(F1.2379463603351357
F-1.533951554967646
F-1.1562915215901832
F-2.3071659107997977
F-1.2524378235436797
F1.3250849683431931
F-0.3049947387021449
F0.008648299612104893
F0.008648299612104893
tp353
a(F-0.0006666343818166999
F-0.000592712629097637
F-5.738878311858761e-05
F-0.0007682602524855376
F0.0002368115292421252
F0.000395801050325113
F-0.0005569263056929273
F0.0
F0.0
tp354
a(F0.16127276420593262
F21.487751007080078
F24.815998077392578
F5.343743801116943
F1.006489634513855
F2.2119064331054688
F0.00891033560037613
F0.0
F0.0
tp355
abasS'O5'
p356
(lp357
g3
(g4
g5
Ntp358
Rp359
(lp360
g3
(g9
g5
Ntp361
Rp362
(lp363
I0
ag3
(g13
g5
Ntp364
Rp365
(lp366
I1695978523
aI270113945
abaS'panda_link0'
p367
abag356
ag3
(g18
g5
Ntp368
Rp369
(lp370
g3
(g22
g5
Ntp371
Rp372
(lp373
F0.6113618631661943
aF0.2039677214655791
aF0.2520646094035879
abag3
(g26
g5
Ntp374
Rp375
(lp376
F0.9292707669671981
aF0.36912119993404835
aF-0.0002488850652465494
aF-0.014328973294271252
abababag3
(g30
g5
Ntp377
Rp378
(lp379
g3
(g9
g5
Ntp380
Rp381
(lp382
I7830
ag3
(g37
g5
Ntp383
Rp384
(lp385
I1695978523
aI338366985
abag41
aba(lp386
S'panda_joint1'
p387
aS'panda_joint2'
p388
aS'panda_joint3'
p389
aS'panda_joint4'
p390
aS'panda_joint5'
p391
aS'panda_joint6'
p392
aS'panda_joint7'
p393
aS'panda_finger_joint1'
p394
aS'panda_finger_joint2'
p395
aa(F2.404621136599803
F-1.5910094701585118
F-1.5048185539290937
F-1.7399281817224985
F-1.5560677206657254
F1.518716496679518
F0.24719816657254773
F0.008648628368973732
F0.008648628368973732
tp396
a(F0.0007597070354486447
F0.0004381032450566255
F3.650169339967891e-05
F-0.00027438913260137594
F-0.0001707755492173293
F0.0002101019807976029
F-3.1778737193352186e-05
F0.0
F0.0
tp397
a(F0.03828692436218262
F34.19496536254883
F30.001239776611328
F-0.17078270018100739
F0.625630259513855
F2.2119064331054688
F-0.10369952768087387
F0.0
F0.0
tp398
abasS'O4'
p399
(lp400
g3
(g4
g5
Ntp401
Rp402
(lp403
g3
(g9
g5
Ntp404
Rp405
(lp406
I0
ag3
(g13
g5
Ntp407
Rp408
(lp409
I1695978516
aI570127010
abaS'panda_link0'
p410
abag399
ag3
(g18
g5
Ntp411
Rp412
(lp413
g3
(g22
g5
Ntp414
Rp415
(lp416
F0.45156211774296234
aF0.39739376854523006
aF0.2520945300370243
abag3
(g26
g5
Ntp417
Rp418
(lp419
F0.9283237653164503
aF0.37161759261756033
aF-0.0017764669196189912
aF-0.01059225052103686
abababag3
(g30
g5
Ntp420
Rp421
(lp422
g3
(g9
g5
Ntp423
Rp424
(lp425
I7630
ag3
(g37
g5
Ntp426
Rp427
(lp428
I1695978516
aI670131921
abag41
aba(lp429
S'panda_joint1'
p430
aS'panda_joint2'
p431
aS'panda_joint3'
p432
aS'panda_joint4'
p433
aS'panda_joint5'
p434
aS'panda_joint6'
p435
aS'panda_joint7'
p436
aS'panda_finger_joint1'
p437
aS'panda_finger_joint2'
p438
aa(F2.689146648412946
F-1.5916251320549077
F-1.5070186757342652
F-1.9163205588564538
F-1.5557142586506516
F1.5207866883827652
F0.7024871192342705
F0.008648628368973732
F0.008648628368973732
tp439
a(F0.0007599414244274345
F-9.290393610115592e-05
F0.0002808604971304872
F-0.0006238017394156513
F0.00037736946912403076
F-0.0001384813954907496
F-0.0013283051424835158
F0.0
F0.0
tp440
a(F0.11366534233093262
F30.338764190673828
F29.695758819580078
F0.15453468263149261
F0.546894907951355
F2.2183151245117188
F0.16729655861854553
F0.0
F0.0
tp441
abasS'O3'
p442
(lp443
g3
(g4
g5
Ntp444
Rp445
(lp446
g3
(g9
g5
Ntp447
Rp448
(lp449
I0
ag3
(g13
g5
Ntp450
Rp451
(lp452
I1695978509
aI803370953
abaS'panda_link0'
p453
abag442
ag3
(g18
g5
Ntp454
Rp455
(lp456
g3
(g22
g5
Ntp457
Rp458
(lp459
F0.45344444655066196
aF0.21973314562900306
aF0.24843796784449093
abag3
(g26
g5
Ntp460
Rp461
(lp462
F0.9283077326368088
aF0.37176799296484825
aF-0.0004736275626053264
aF-0.005752270032606171
abababag3
(g30
g5
Ntp463
Rp464
(lp465
g3
(g9
g5
Ntp466
Rp467
(lp468
I7427
ag3
(g37
g5
Ntp469
Rp470
(lp471
I1695978509
aI903518915
abag41
aba(lp472
S'panda_joint1'
p473
aS'panda_joint2'
p474
aS'panda_joint3'
p475
aS'panda_joint4'
p476
aS'panda_joint5'
p477
aS'panda_joint6'
p478
aS'panda_joint7'
p479
aS'panda_finger_joint1'
p480
aS'panda_finger_joint2'
p481
aa(F2.1763025979838204
F-1.5933121299270665
F-1.513399590943989
F-2.263298480706893
F-1.5437157528102592
F1.520805118136263
F0.5365084530870706
F0.008648628368973732
F0.008648628368973732
tp482
a(F0.0005868974648633395
F-0.00023908322723315825
F-0.0005896952474673575
F-0.0009064743629532181
F-0.00018282493816057936
F-0.00034359658738411167
F-0.0005062948164022543
F0.0
F0.0
tp483
a(F0.06209063529968262
F22.606525421142578
F27.410602569580078
F0.3528989553451538
F0.650349497795105
F2.3968429565429688
F-0.11651691049337387
F0.0
F0.0
tp484
abasS'O2'
p485
(lp486
g3
(g4
g5
Ntp487
Rp488
(lp489
g3
(g9
g5
Ntp490
Rp491
(lp492
I0
ag3
(g13
g5
Ntp493
Rp494
(lp495
I1695978502
aI670171022
abaS'panda_link0'
p496
abag485
ag3
(g18
g5
Ntp497
Rp498
(lp499
g3
(g22
g5
Ntp500
Rp501
(lp502
F0.32129279865264215
aF0.39996663287696715
aF0.2446147079620466
abag3
(g26
g5
Ntp503
Rp504
(lp505
F0.9272464668095803
aF0.374386184564778
aF0.0030034354359091673
aF-0.006320915421078949
abababag3
(g30
g5
Ntp506
Rp507
(lp508
g3
(g9
g5
Ntp509
Rp510
(lp511
I7214
ag3
(g37
g5
Ntp512
Rp513
(lp514
I1695978502
aI803484916
abag41
aba(lp515
S'panda_joint1'
p516
aS'panda_joint2'
p517
aS'panda_joint3'
p518
aS'panda_joint4'
p519
aS'panda_joint5'
p520
aS'panda_joint6'
p521
aS'panda_joint7'
p522
aS'panda_finger_joint1'
p523
aS'panda_finger_joint2'
p524
aa(F2.638488139487149
F-1.5896398966772511
F-1.5245819534698608
F-2.237595353405638
F-1.5601197874148685
F1.5364836494657725
F0.9667732566561964
F0.008648628368973732
F0.008648628368973732
tp525
a(F-5.2693248373779455e-05
F-0.0007542017976658328
F0.0001764917909067513
F0.0002774032335641259
F2.5601774437671243e-05
F-0.0003478089318385996
F-0.0010441245672860847
F0.0
F0.0
tp526
a(F0.18904376029968262
F23.376178741455078
F27.640705108642578
F0.5274595022201538
F0.680561900138855
F2.0663375854492188
F0.20666423439979553
F0.0
F0.0
tp527
abasS'O1'
p528
(lp529
g3
(g4
g5
Ntp530
Rp531
(lp532
g3
(g9
g5
Ntp533
Rp534
(lp535
I0
ag3
(g13
g5
Ntp536
Rp537
(lp538
I1695978494
aI469969034
abaS'panda_link0'
p539
abag528
ag3
(g18
g5
Ntp540
Rp541
(lp542
g3
(g22
g5
Ntp543
Rp544
(lp545
F0.31900079913530494
aF0.2522498489054553
aF0.23951923664760294
abag3
(g26
g5
Ntp546
Rp547
(lp548
F0.9277036674100163
aF0.37325443467749064
aF0.006387729778899967
aF-0.0024958717643541297
abababag3
(g30
g5
Ntp549
Rp550
(lp551
g3
(g9
g5
Ntp552
Rp553
(lp554
I6966
ag3
(g37
g5
Ntp555
Rp556
(lp557
I1695978494
aI536823034
abag41
aba(lp558
S'panda_joint1'
p559
aS'panda_joint2'
p560
aS'panda_joint3'
p561
aS'panda_joint4'
p562
aS'panda_joint5'
p563
aS'panda_joint6'
p564
aS'panda_joint7'
p565
aS'panda_finger_joint1'
p566
aS'panda_finger_joint2'
p567
aa(F2.1420199659079837
F-1.588713664004677
F-1.5334509591888958
F-2.5804336224539246
F-1.5587993283669155
F1.5450603890928636
F0.8155604173553341
F0.008648628368973732
F0.008648628368973732
tp568
a(F0.0007818721544676017
F-0.0007612649332152544
F0.0007492271909491483
F0.0005041944281021638
F0.002959312898821059
F0.00022870042805089478
F0.0011853156202870578
F0.0
F0.0
tp569
a(F-0.013287782669067383
F16.838092803955078
F23.141803741455078
F0.4520810842514038
F0.704365611076355
F2.4902267456054688
F-0.004822574555873871
F0.0
F0.0
tp570
abas.